(dp0
S'400123456'
p1
(dp2
S'password'
p3
S'123456'
p4
sS'limit'
p5
I35000
sS'borrow'
p6
I0
sS'cash'
p7
I0
ssS'120'
p8
(dp9
g3
g8
sg5
I8000
sg6
I0
sg7
I0
ssS'119'
p10
(dp11
g3
g10
sg5
I10000
sg6
I0
sg7
I0
ssS'110'
p12
(dp13
g3
g12
sg5
I7000
sg6
I0
sg7
I0
ss.